target datalayout = "e-m:e-p270:32:32-p271:32:32-p272:64:64-i64:64-i128:128-f80:128-n8:16:32:64-S128"
target triple = "x86_64-unknown-linux-gnu"

%"class.cvc5::internal::FatalStream" = type { i8 }

@.str.13 = private unnamed_addr constant [108 x i8] c"generated/home/dtcxzyw/WorkSpace/Projects/compilers/llvm-opt-benchmark/bench/cvc5/cvc5/src/prop/cadical.cpp\00", align 1
@__PRETTY_FUNCTION__._ZN4cvc58internal4prop13CadicalSolver5solveERm = private unnamed_addr constant [77 x i8] c"virtual SatValue cvc5::internal::prop::CadicalSolver::solve(unsigned long &)\00", align 1
@.str.16 = private unnamed_addr constant [32 x i8] c"Unimplemented code encountered \00", align 1
@.str.17 = private unnamed_addr constant [45 x i8] c"Setting limits for CaDiCaL not supported yet\00", align 1

; Function Attrs: mustprogress uwtable
define hidden noundef i32 @_ZN4cvc58internal4prop13CadicalSolver5solveERm(ptr noundef nonnull align 8 dereferenceable(144) %this, ptr noundef nonnull align 8 dereferenceable(8) %0) unnamed_addr #5 align 2 personality ptr @__gxx_personality_v0 {
entry:
  %this.addr = alloca ptr, align 8
  %.addr = alloca ptr, align 8
  %ref.tmp = alloca %"class.cvc5::internal::FatalStream", align 1
  %exn.slot = alloca ptr, align 8
  %ehselector.slot = alloca i32, align 4
  store ptr %this, ptr %this.addr, align 8
  store ptr %0, ptr %.addr, align 8
  call void @_ZN4cvc58internal11FatalStreamC1EPKcS3_i(ptr noundef nonnull align 1 dereferenceable(1) %ref.tmp, ptr noundef @__PRETTY_FUNCTION__._ZN4cvc58internal4prop13CadicalSolver5solveERm, ptr noundef @.str.13, i32 noundef 1088)
  %call = invoke noundef nonnull align 8 dereferenceable(8) ptr @_ZN4cvc58internal11FatalStream6streamEv(ptr noundef nonnull align 1 dereferenceable(1) %ref.tmp)
          to label %invoke.cont unwind label %lpad

invoke.cont:                                      ; preds = %entry
  %call3 = invoke noundef nonnull align 8 dereferenceable(8) ptr @_ZStlsISt11char_traitsIcEERSt13basic_ostreamIcT_ES5_PKc(ptr noundef nonnull align 8 dereferenceable(8) %call, ptr noundef @.str.16)
          to label %invoke.cont2 unwind label %lpad

invoke.cont2:                                     ; preds = %invoke.cont
  %call5 = invoke noundef nonnull align 8 dereferenceable(8) ptr @_ZStlsISt11char_traitsIcEERSt13basic_ostreamIcT_ES5_PKc(ptr noundef nonnull align 8 dereferenceable(8) %call3, ptr noundef @.str.17)
          to label %invoke.cont4 unwind label %lpad

invoke.cont4:                                     ; preds = %invoke.cont2
  call void @_ZN4cvc58internal11FatalStreamD1Ev(ptr noundef nonnull align 1 dereferenceable(1) %ref.tmp) #19
  unreachable

lpad:                                             ; preds = %invoke.cont2, %invoke.cont, %entry
  %1 = landingpad { ptr, i32 }
          cleanup
  %2 = extractvalue { ptr, i32 } %1, 0
  store ptr %2, ptr %exn.slot, align 8
  %3 = extractvalue { ptr, i32 } %1, 1
  store i32 %3, ptr %ehselector.slot, align 4
  call void @_ZN4cvc58internal11FatalStreamD1Ev(ptr noundef nonnull align 1 dereferenceable(1) %ref.tmp) #19
  unreachable

4:                                                ; No predecessors!
  br label %eh.resume

eh.resume:                                        ; preds = %4
  %exn = load ptr, ptr %exn.slot, align 8
  %sel = load i32, ptr %ehselector.slot, align 4
  %lpad.val = insertvalue { ptr, i32 } poison, ptr %exn, 0
  %lpad.val6 = insertvalue { ptr, i32 } %lpad.val, i32 %sel, 1
  resume { ptr, i32 } %lpad.val6
}